target datalayout = "e-m:e-p270:32:32-p271:32:32-p272:64:64-i64:64-i128:128-f80:128-n8:16:32:64-S128"
target triple = "x86_64-pc-linux-gnu"

%"class.zxing::qrcode::BitMatrixParser" = type <{ %"class.zxing::Counted.base", [4 x i8], %"class.zxing::Ref", ptr, %"class.zxing::Ref.0", i8, [7 x i8] }>
%"class.zxing::Counted.base" = type <{ ptr, i32 }>
%"class.zxing::Ref" = type { ptr }
%"class.zxing::Ref.0" = type { ptr }
%"class.zxing::BitMatrix" = type <{ %"class.zxing::Counted.base", i32, i32, i32, %"class.std::vector", %"class.std::vector", %"class.std::vector.1", %"class.std::vector", %"class.std::vector", %"class.std::vector", %"class.std::vector", %"class.std::vector.1", %"class.std::vector", %"class.std::vector", %"class.zxing::ArrayRef", %"class.zxing::ArrayRef.5", i8, i8, [6 x i8] }>
%"class.std::vector.1" = type { %"struct.std::_Bvector_base" }
%"struct.std::_Bvector_base" = type { %"struct.std::_Bvector_base<std::allocator<bool>>::_Bvector_impl" }
%"struct.std::_Bvector_base<std::allocator<bool>>::_Bvector_impl" = type { %"struct.std::_Bvector_base<std::allocator<bool>>::_Bvector_impl_data" }
%"struct.std::_Bvector_base<std::allocator<bool>>::_Bvector_impl_data" = type { %"struct.std::_Bit_iterator", %"struct.std::_Bit_iterator", ptr }
%"struct.std::_Bit_iterator" = type { %"struct.std::_Bit_iterator_base.base", [4 x i8] }
%"struct.std::_Bit_iterator_base.base" = type <{ ptr, i32 }>
%"class.std::vector" = type { %"struct.std::_Vector_base" }
%"struct.std::_Vector_base" = type { %"struct.std::_Vector_base<short, std::allocator<short>>::_Vector_impl" }
%"struct.std::_Vector_base<short, std::allocator<short>>::_Vector_impl" = type { %"struct.std::_Vector_base<short, std::allocator<short>>::_Vector_impl_data" }
%"struct.std::_Vector_base<short, std::allocator<short>>::_Vector_impl_data" = type { ptr, ptr, ptr }
%"class.zxing::ArrayRef" = type { %"class.zxing::Counted.base", ptr }
%"class.zxing::ArrayRef.5" = type { %"class.zxing::Counted.base", ptr }
%"class.zxing::Array" = type { %"class.zxing::Counted.base", %"class.std::vector.15" }
%"class.std::vector.15" = type { %"struct.std::_Vector_base.16" }
%"struct.std::_Vector_base.16" = type { %"struct.std::_Vector_base<unsigned char, std::allocator<unsigned char>>::_Vector_impl" }
%"struct.std::_Vector_base<unsigned char, std::allocator<unsigned char>>::_Vector_impl" = type { %"struct.std::_Vector_base<unsigned char, std::allocator<unsigned char>>::_Vector_impl_data" }
%"struct.std::_Vector_base<unsigned char, std::allocator<unsigned char>>::_Vector_impl_data" = type { ptr, ptr, ptr }

; Function Attrs: mustprogress nounwind uwtable
define linkonce_odr hidden noundef nonnull align 1 dereferenceable(1) ptr @_ZNSt6vectorIhSaIhEEixEm(ptr noundef nonnull align 8 dereferenceable(24) %0, i64 noundef %1) #2 comdat align 2 {
  %3 = alloca ptr, align 8
  %4 = alloca i64, align 8
  store ptr %0, ptr %3, align 8, !tbaa !93
  store i64 %1, ptr %4, align 8, !tbaa !8
  %5 = load ptr, ptr %3, align 8
  %6 = getelementptr inbounds nuw %"struct.std::_Vector_base.16", ptr %5, i32 0, i32 0
  %7 = getelementptr inbounds nuw %"struct.std::_Vector_base<unsigned char, std::allocator<unsigned char>>::_Vector_impl_data", ptr %6, i32 0, i32 0
  %8 = load ptr, ptr %7, align 8, !tbaa !95
  %9 = load i64, ptr %4, align 8, !tbaa !8
  %10 = getelementptr inbounds nuw i8, ptr %8, i64 %9
  ret ptr %10
}

; Function Attrs: mustprogress nounwind uwtable
define linkonce_odr hidden noundef nonnull align 1 dereferenceable(1) ptr @_ZN5zxing5ArrayIhEixEi(ptr noundef nonnull align 8 dereferenceable(40) %0, i32 noundef %1) #2 comdat align 2 {
  %3 = alloca ptr, align 8
  %4 = alloca i32, align 4
  store ptr %0, ptr %3, align 8, !tbaa !92
  store i32 %1, ptr %4, align 4, !tbaa !10
  %5 = load ptr, ptr %3, align 8
  %6 = getelementptr inbounds nuw %"class.zxing::Array", ptr %5, i32 0, i32 1
  %7 = load i32, ptr %4, align 4, !tbaa !10
  %8 = sext i32 %7 to i64
  %9 = call noundef nonnull align 1 dereferenceable(1) ptr @_ZNSt6vectorIhSaIhEEixEm(ptr noundef nonnull align 8 dereferenceable(24) %6, i64 noundef %8) #12
  ret ptr %9
}

; Function Attrs: mustprogress uwtable
define linkonce_odr hidden noundef nonnull align 1 dereferenceable(1) ptr @_ZNK5zxing8ArrayRefIhEixEi(ptr noundef nonnull align 8 dereferenceable(24) %0, i32 noundef %1) #0 comdat align 2 {
  %3 = alloca ptr, align 8
  %4 = alloca i32, align 4
  store ptr %0, ptr %3, align 8, !tbaa !89
  store i32 %1, ptr %4, align 4, !tbaa !10
  %5 = load ptr, ptr %3, align 8
  %6 = getelementptr inbounds nuw %"class.zxing::ArrayRef", ptr %5, i32 0, i32 1
  %7 = load ptr, ptr %6, align 8, !tbaa !91
  %8 = load i32, ptr %4, align 4, !tbaa !10
  %9 = call noundef nonnull align 1 dereferenceable(1) ptr @_ZN5zxing5ArrayIhEixEi(ptr noundef nonnull align 8 dereferenceable(40) %7, i32 noundef %8)
  ret ptr %9
}

; Function Attrs: mustprogress uwtable
define linkonce_odr hidden noundef zeroext i8 @_ZNK5zxing9BitMatrix3getEii(ptr noundef nonnull align 8 dereferenceable(346) %0, i32 noundef %1, i32 noundef %2) #0 comdat align 2 {
  %4 = alloca ptr, align 8
  %5 = alloca i32, align 4
  %6 = alloca i32, align 4
  store ptr %0, ptr %4, align 8, !tbaa !27
  store i32 %1, ptr %5, align 4, !tbaa !10
  store i32 %2, ptr %6, align 4, !tbaa !10
  %7 = load ptr, ptr %4, align 8
  %8 = getelementptr inbounds nuw %"class.zxing::BitMatrix", ptr %7, i32 0, i32 14
  %9 = getelementptr inbounds nuw %"class.zxing::BitMatrix", ptr %7, i32 0, i32 1
  %10 = load i32, ptr %9, align 4, !tbaa !28
  %11 = load i32, ptr %6, align 4, !tbaa !10
  %12 = mul nsw i32 %10, %11
  %13 = load i32, ptr %5, align 4, !tbaa !10
  %14 = add nsw i32 %12, %13
  %15 = call noundef nonnull align 1 dereferenceable(1) ptr @_ZNK5zxing8ArrayRefIhEixEi(ptr noundef nonnull align 8 dereferenceable(24) %8, i32 noundef %14)
  %16 = load i8, ptr %15, align 1, !tbaa !46
  ret i8 %16
}

; Function Attrs: mustprogress nounwind uwtable
define linkonce_odr hidden noundef ptr @_ZNK5zxing3RefINS_9BitMatrixEEptEv(ptr noundef nonnull align 8 dereferenceable(8) %0) #2 comdat align 2 {
  %2 = alloca ptr, align 8
  store ptr %0, ptr %2, align 8, !tbaa !24
  %3 = load ptr, ptr %2, align 8
  %4 = getelementptr inbounds nuw %"class.zxing::Ref", ptr %3, i32 0, i32 0
  %5 = load ptr, ptr %4, align 8, !tbaa !26
  ret ptr %5
}

; Function Attrs: mustprogress uwtable
define hidden void @_ZN5zxing6qrcode15BitMatrixParser6mirrorEv(ptr noundef nonnull align 8 dereferenceable(41) %0) #0 align 2 {
  %2 = alloca ptr, align 8
  %3 = alloca i32, align 4
  %4 = alloca i32, align 4
  %5 = alloca i32, align 4
  store ptr %0, ptr %2, align 8, !tbaa !3
  %6 = load ptr, ptr %2, align 8
  call void @llvm.lifetime.start.p0(i64 4, ptr %3) #12
  store i32 0, ptr %3, align 4, !tbaa !10
  br label %7

7:                                                ; preds = %52, %1
  %8 = load i32, ptr %3, align 4, !tbaa !10
  %9 = getelementptr inbounds nuw %"class.zxing::qrcode::BitMatrixParser", ptr %6, i32 0, i32 2
  %10 = call noundef ptr @_ZNK5zxing3RefINS_9BitMatrixEEptEv(ptr noundef nonnull align 8 dereferenceable(8) %9)
  %11 = call noundef i32 @_ZNK5zxing9BitMatrix8getWidthEv(ptr noundef nonnull align 8 dereferenceable(346) %10)
  %12 = icmp slt i32 %8, %11
  br i1 %12, label %14, label %13

13:                                               ; preds = %7
  store i32 2, ptr %4, align 4
  call void @llvm.lifetime.end.p0(i64 4, ptr %3) #12
  br label %55

14:                                               ; preds = %7
  call void @llvm.lifetime.start.p0(i64 4, ptr %5) #12
  %15 = load i32, ptr %3, align 4, !tbaa !10
  %16 = add nsw i32 %15, 1
  store i32 %16, ptr %5, align 4, !tbaa !10
  br label %17

17:                                               ; preds = %48, %14
  %18 = load i32, ptr %5, align 4, !tbaa !10
  %19 = getelementptr inbounds nuw %"class.zxing::qrcode::BitMatrixParser", ptr %6, i32 0, i32 2
  %20 = call noundef ptr @_ZNK5zxing3RefINS_9BitMatrixEEptEv(ptr noundef nonnull align 8 dereferenceable(8) %19)
  %21 = call noundef i32 @_ZNK5zxing9BitMatrix9getHeightEv(ptr noundef nonnull align 8 dereferenceable(346) %20)
  %22 = icmp slt i32 %18, %21
  br i1 %22, label %24, label %23

23:                                               ; preds = %17
  store i32 5, ptr %4, align 4
  call void @llvm.lifetime.end.p0(i64 4, ptr %5) #12
  br label %51

24:                                               ; preds = %17
  %25 = getelementptr inbounds nuw %"class.zxing::qrcode::BitMatrixParser", ptr %6, i32 0, i32 2
  %26 = call noundef ptr @_ZNK5zxing3RefINS_9BitMatrixEEptEv(ptr noundef nonnull align 8 dereferenceable(8) %25)
  %27 = load i32, ptr %3, align 4, !tbaa !10
  %28 = load i32, ptr %5, align 4, !tbaa !10
  %29 = call noundef zeroext i8 @_ZNK5zxing9BitMatrix3getEii(ptr noundef nonnull align 8 dereferenceable(346) %26, i32 noundef %27, i32 noundef %28)
  %30 = zext i8 %29 to i32
  %31 = getelementptr inbounds nuw %"class.zxing::qrcode::BitMatrixParser", ptr %6, i32 0, i32 2
  %32 = call noundef ptr @_ZNK5zxing3RefINS_9BitMatrixEEptEv(ptr noundef nonnull align 8 dereferenceable(8) %31)
  %33 = load i32, ptr %5, align 4, !tbaa !10
  %34 = load i32, ptr %3, align 4, !tbaa !10
  %35 = call noundef zeroext i8 @_ZNK5zxing9BitMatrix3getEii(ptr noundef nonnull align 8 dereferenceable(346) %32, i32 noundef %33, i32 noundef %34)
  %36 = zext i8 %35 to i32
  %37 = icmp ne i32 %30, %36
  br i1 %37, label %38, label %47

38:                                               ; preds = %24
  %39 = getelementptr inbounds nuw %"class.zxing::qrcode::BitMatrixParser", ptr %6, i32 0, i32 2
  %40 = call noundef ptr @_ZNK5zxing3RefINS_9BitMatrixEEptEv(ptr noundef nonnull align 8 dereferenceable(8) %39)
  %41 = load i32, ptr %5, align 4, !tbaa !10
  %42 = load i32, ptr %3, align 4, !tbaa !10
  call void @_ZN5zxing9BitMatrix4flipEii(ptr noundef nonnull align 8 dereferenceable(346) %40, i32 noundef %41, i32 noundef %42)
  %43 = getelementptr inbounds nuw %"class.zxing::qrcode::BitMatrixParser", ptr %6, i32 0, i32 2
  %44 = call noundef ptr @_ZNK5zxing3RefINS_9BitMatrixEEptEv(ptr noundef nonnull align 8 dereferenceable(8) %43)
  %45 = load i32, ptr %3, align 4, !tbaa !10
  %46 = load i32, ptr %5, align 4, !tbaa !10
  call void @_ZN5zxing9BitMatrix4flipEii(ptr noundef nonnull align 8 dereferenceable(346) %44, i32 noundef %45, i32 noundef %46)
  br label %47

47:                                               ; preds = %38, %24
  br label %48

48:                                               ; preds = %47
  %49 = load i32, ptr %5, align 4, !tbaa !10
  %50 = add nsw i32 %49, 1
  store i32 %50, ptr %5, align 4, !tbaa !10
  br label %17, !llvm.loop !87

51:                                               ; preds = %23
  br label %52

52:                                               ; preds = %51
  %53 = load i32, ptr %3, align 4, !tbaa !10
  %54 = add nsw i32 %53, 1
  store i32 %54, ptr %3, align 4, !tbaa !10
  br label %7, !llvm.loop !88

55:                                               ; preds = %13
  ret void
}