; Function Attrs: mustprogress uwtable
define hidden void @_ZN5zxing6qrcode15BitMatrixParser6mirrorEv(ptr noundef nonnull readonly align 8 captures(none) dereferenceable(41) %0) local_unnamed_addr #2 align 2 {
  %2 = getelementptr inbounds nuw i8, ptr %0, i64 16
  %3 = load ptr, ptr %2, align 8, !tbaa !18
  %4 = tail call noundef i32 @_ZNK5zxing9BitMatrix8getWidthEv(ptr noundef nonnull align 8 dereferenceable(346) %3)
  %5 = icmp sgt i32 %4, 0
  br i1 %5, label %.lr.ph16, label %._crit_edge

.loopexit:                                        ; preds = %32, %.lr.ph16
  %6 = load ptr, ptr %2, align 8, !tbaa !18
  %7 = tail call noundef i32 @_ZNK5zxing9BitMatrix8getWidthEv(ptr noundef nonnull align 8 dereferenceable(346) %6)
  %8 = icmp slt i32 %9, %7
  br i1 %8, label %.lr.ph16, label %._crit_edge, !llvm.loop !74

._crit_edge:                                      ; preds = %.loopexit, %1
  ret void

.lr.ph16:                                         ; preds = %1, %.loopexit
  %.01315 = phi i32 [ %9, %.loopexit ], [ 0, %1 ]
  %9 = add nuw nsw i32 %.01315, 1
  %10 = load ptr, ptr %2, align 8, !tbaa !18
  %11 = tail call noundef i32 @_ZNK5zxing9BitMatrix9getHeightEv(ptr noundef nonnull align 8 dereferenceable(346) %10)
  %12 = icmp slt i32 %9, %11
  br i1 %12, label %.lr.ph, label %.loopexit

.lr.ph:                                           ; preds = %.lr.ph16, %32
  %.014 = phi i32 [ %34, %32 ], [ %9, %.lr.ph16 ]
  %13 = load ptr, ptr %2, align 8, !tbaa !18
  %14 = getelementptr inbounds nuw i8, ptr %13, i64 12
  %15 = load i32, ptr %14, align 4, !tbaa !19
  %16 = mul nsw i32 %15, %.014
  %17 = add nsw i32 %16, %.01315
  %18 = getelementptr inbounds nuw i8, ptr %13, i64 312
  %19 = load ptr, ptr %18, align 8, !tbaa !37
  %20 = getelementptr inbounds nuw i8, ptr %19, i64 16
  %21 = sext i32 %17 to i64
  %22 = load ptr, ptr %20, align 8, !tbaa !38
  %23 = getelementptr inbounds nuw i8, ptr %22, i64 %21
  %24 = load i8, ptr %23, align 1, !tbaa !41
  %25 = mul nsw i32 %15, %.01315
  %26 = add nsw i32 %25, %.014
  %27 = sext i32 %26 to i64
  %28 = getelementptr inbounds nuw i8, ptr %22, i64 %27
  %29 = load i8, ptr %28, align 1, !tbaa !41
  %.not = icmp eq i8 %24, %29
  br i1 %.not, label %32, label %30

30:                                               ; preds = %.lr.ph
  tail call void @_ZN5zxing9BitMatrix4flipEii(ptr noundef nonnull align 8 dereferenceable(346) %13, i32 noundef %.014, i32 noundef %.01315)
  %31 = load ptr, ptr %2, align 8, !tbaa !18
  tail call void @_ZN5zxing9BitMatrix4flipEii(ptr noundef nonnull align 8 dereferenceable(346) %31, i32 noundef %.01315, i32 noundef %.014)
  %.pre = load ptr, ptr %2, align 8, !tbaa !18
  br label %32

32:                                               ; preds = %.lr.ph, %30
  %33 = phi ptr [ %13, %.lr.ph ], [ %.pre, %30 ]
  %34 = add nuw nsw i32 %.014, 1
  %35 = tail call noundef i32 @_ZNK5zxing9BitMatrix9getHeightEv(ptr noundef nonnull align 8 dereferenceable(346) %33)
  %36 = icmp slt i32 %34, %35
  br i1 %36, label %.lr.ph, label %.loopexit, !llvm.loop !75
}